target datalayout = "e-m:e-p270:32:32-p271:32:32-p272:64:64-i64:64-i128:128-f80:128-n8:16:32:64-S128"
target triple = "x86_64-unknown-linux-gnu"

%class.btVector3 = type { [4 x float] }
%class.btMatrix3x3 = type { [3 x %class.btVector3] }
%class.btTransform = type { %class.btMatrix3x3, %class.btVector3 }
%"struct.btSoftBody::Feature" = type { %"struct.btSoftBody::Element", ptr }
%"struct.btSoftBody::Element" = type { ptr }
%class.btSoftBody = type { %class.btCollisionObject.base, [4 x i8], %class.btAlignedObjectArray, ptr, %"struct.btSoftBody::Config", %"struct.btSoftBody::SolverState", [4 x i8], %"struct.btSoftBody::Pose", ptr, ptr, %class.btAlignedObjectArray.16, %class.btAlignedObjectArray.20, %class.btAlignedObjectArray.24, %class.btAlignedObjectArray.28, %class.btAlignedObjectArray.32, %class.btAlignedObjectArray.36, %class.btAlignedObjectArray.40, %class.btAlignedObjectArray.44, %class.btAlignedObjectArray.44, %class.btAlignedObjectArray.48, %class.btAlignedObjectArray.52, %class.btAlignedObjectArray.56, %class.btAlignedObjectArray.60, %class.btAlignedObjectArray.64, %class.btAlignedObjectArray.68, %class.btAlignedObjectArray.64, %class.btAlignedObjectArray.72, %class.btAlignedObjectArray.76, %class.btAlignedObjectArray.80, float, [2 x %class.btVector3], i8, %struct.btDbvt, %struct.btDbvt, ptr, %struct.btDbvt, %class.btAlignedObjectArray.88, float, float, float, [4 x i8], %class.btAlignedObjectArray.8, float, float, i8, [7 x i8], %class.btAlignedObjectArray.8, %class.btAlignedObjectArray.92, %class.btAlignedObjectArray.96, %class.btAlignedObjectArray.12, i8, i8, [6 x i8], %class.btAlignedObjectArray.100, %class.btVector3, float, i8, [3 x i8], %class.btAlignedObjectArray.104 }
%class.btCollisionObject.base = type <{ ptr, %class.btTransform, %class.btTransform, %class.btVector3, %class.btVector3, %class.btVector3, i32, float, ptr, ptr, ptr, ptr, i32, i32, i32, i32, i32, float, float, float, float, float, float, float, i32, [4 x i8], ptr, i32, i32, i32, float, float, float, i32, [4 x i8], %class.btAlignedObjectArray, i32, %class.btVector3 }>
%class.btAlignedObjectArray = type <{ %class.btAlignedAllocator, [3 x i8], i32, i32, [4 x i8], ptr, i8, [7 x i8] }>
%class.btAlignedAllocator = type { i8 }
%"struct.btSoftBody::Config" = type { i32, float, float, float, float, float, float, float, float, float, float, float, float, float, float, float, float, float, float, float, float, i32, i32, i32, i32, i32, %class.btAlignedObjectArray.0, %class.btAlignedObjectArray.4, %class.btAlignedObjectArray.4, float, float }
%class.btAlignedObjectArray.0 = type <{ %class.btAlignedAllocator.1, [3 x i8], i32, i32, [4 x i8], ptr, i8, [7 x i8] }>
%class.btAlignedAllocator.1 = type { i8 }
%class.btAlignedObjectArray.4 = type <{ %class.btAlignedAllocator.5, [3 x i8], i32, i32, [4 x i8], ptr, i8, [7 x i8] }>
%class.btAlignedAllocator.5 = type { i8 }
%"struct.btSoftBody::SolverState" = type { float, float, float, float, float }
%"struct.btSoftBody::Pose" = type { i8, i8, float, %class.btAlignedObjectArray.8, %class.btAlignedObjectArray.12, %class.btVector3, %class.btMatrix3x3, %class.btMatrix3x3, %class.btMatrix3x3 }
%class.btAlignedObjectArray.16 = type <{ %class.btAlignedAllocator.17, [3 x i8], i32, i32, [4 x i8], ptr, i8, [7 x i8] }>
%class.btAlignedAllocator.17 = type { i8 }
%class.btAlignedObjectArray.20 = type <{ %class.btAlignedAllocator.21, [3 x i8], i32, i32, [4 x i8], ptr, i8, [7 x i8] }>
%class.btAlignedAllocator.21 = type { i8 }
%class.btAlignedObjectArray.24 = type <{ %class.btAlignedAllocator.25, [3 x i8], i32, i32, [4 x i8], ptr, i8, [7 x i8] }>
%class.btAlignedAllocator.25 = type { i8 }
%class.btAlignedObjectArray.28 = type <{ %class.btAlignedAllocator.29, [3 x i8], i32, i32, [4 x i8], ptr, i8, [7 x i8] }>
%class.btAlignedAllocator.29 = type { i8 }
%class.btAlignedObjectArray.32 = type <{ %class.btAlignedAllocator.33, [3 x i8], i32, i32, [4 x i8], ptr, i8, [7 x i8] }>
%class.btAlignedAllocator.33 = type { i8 }
%class.btAlignedObjectArray.36 = type <{ %class.btAlignedAllocator.37, [3 x i8], i32, i32, [4 x i8], ptr, i8, [7 x i8] }>
%class.btAlignedAllocator.37 = type { i8 }
%class.btAlignedObjectArray.40 = type <{ %class.btAlignedAllocator.41, [3 x i8], i32, i32, [4 x i8], ptr, i8, [7 x i8] }>
%class.btAlignedAllocator.41 = type { i8 }
%class.btAlignedObjectArray.44 = type <{ %class.btAlignedAllocator.45, [3 x i8], i32, i32, [4 x i8], ptr, i8, [7 x i8] }>
%class.btAlignedAllocator.45 = type { i8 }
%class.btAlignedObjectArray.48 = type <{ %class.btAlignedAllocator.49, [3 x i8], i32, i32, [4 x i8], ptr, i8, [7 x i8] }>
%class.btAlignedAllocator.49 = type { i8 }
%class.btAlignedObjectArray.52 = type <{ %class.btAlignedAllocator.53, [3 x i8], i32, i32, [4 x i8], ptr, i8, [7 x i8] }>
%class.btAlignedAllocator.53 = type { i8 }
%class.btAlignedObjectArray.56 = type <{ %class.btAlignedAllocator.57, [3 x i8], i32, i32, [4 x i8], ptr, i8, [7 x i8] }>
%class.btAlignedAllocator.57 = type { i8 }
%class.btAlignedObjectArray.60 = type <{ %class.btAlignedAllocator.61, [3 x i8], i32, i32, [4 x i8], ptr, i8, [7 x i8] }>
%class.btAlignedAllocator.61 = type { i8 }
%class.btAlignedObjectArray.68 = type <{ %class.btAlignedAllocator.69, [3 x i8], i32, i32, [4 x i8], ptr, i8, [7 x i8] }>
%class.btAlignedAllocator.69 = type { i8 }
%class.btAlignedObjectArray.64 = type <{ %class.btAlignedAllocator.65, [3 x i8], i32, i32, [4 x i8], ptr, i8, [7 x i8] }>
%class.btAlignedAllocator.65 = type { i8 }
%class.btAlignedObjectArray.72 = type <{ %class.btAlignedAllocator.73, [3 x i8], i32, i32, [4 x i8], ptr, i8, [7 x i8] }>
%class.btAlignedAllocator.73 = type { i8 }
%class.btAlignedObjectArray.76 = type <{ %class.btAlignedAllocator.77, [3 x i8], i32, i32, [4 x i8], ptr, i8, [7 x i8] }>
%class.btAlignedAllocator.77 = type { i8 }
%class.btAlignedObjectArray.80 = type <{ %class.btAlignedAllocator.81, [3 x i8], i32, i32, [4 x i8], ptr, i8, [7 x i8] }>
%class.btAlignedAllocator.81 = type { i8 }
%struct.btDbvt = type { ptr, ptr, i32, i32, i32, [4 x i8], %class.btAlignedObjectArray.84 }
%class.btAlignedObjectArray.84 = type <{ %class.btAlignedAllocator.85, [3 x i8], i32, i32, [4 x i8], ptr, i8, [7 x i8] }>
%class.btAlignedAllocator.85 = type { i8 }
%class.btAlignedObjectArray.88 = type <{ %class.btAlignedAllocator.89, [3 x i8], i32, i32, [4 x i8], ptr, i8, [7 x i8] }>
%class.btAlignedAllocator.89 = type { i8 }
%class.btAlignedObjectArray.8 = type <{ %class.btAlignedAllocator.9, [3 x i8], i32, i32, [4 x i8], ptr, i8, [7 x i8] }>
%class.btAlignedAllocator.9 = type { i8 }
%class.btAlignedObjectArray.92 = type <{ %class.btAlignedAllocator.93, [3 x i8], i32, i32, [4 x i8], ptr, i8, [7 x i8] }>
%class.btAlignedAllocator.93 = type { i8 }
%class.btAlignedObjectArray.96 = type <{ %class.btAlignedAllocator.97, [3 x i8], i32, i32, [4 x i8], ptr, i8, [7 x i8] }>
%class.btAlignedAllocator.97 = type { i8 }
%class.btAlignedObjectArray.12 = type <{ %class.btAlignedAllocator.13, [3 x i8], i32, i32, [4 x i8], ptr, i8, [7 x i8] }>
%class.btAlignedAllocator.13 = type { i8 }
%class.btAlignedObjectArray.100 = type <{ %class.btAlignedAllocator.101, [3 x i8], i32, i32, [4 x i8], ptr, i8, [7 x i8] }>
%class.btAlignedAllocator.101 = type { i8 }
%class.btAlignedObjectArray.104 = type <{ %class.btAlignedAllocator.105, [3 x i8], i32, i32, [4 x i8], ptr, i8, [7 x i8] }>
%class.btAlignedAllocator.105 = type { i8 }
%"struct.btSoftBody::Link" = type <{ %"struct.btSoftBody::Feature", %class.btVector3, [2 x ptr], float, i8, [3 x i8], float, float, float, [4 x i8] }>
%"struct.btSoftBody::Face" = type <{ %"struct.btSoftBody::Feature", [3 x ptr], %class.btVector3, float, [4 x i8], ptr, %class.btVector4, %class.btVector3, %class.btVector3, %class.btVector3, i32, [4 x i8] }>
%class.btVector4 = type { %class.btVector3 }

; Function Attrs: mustprogress nounwind uwtable
define linkonce_odr dso_local void @_Z6btSwapIN10btSoftBody4FaceEEvRT_S3_(ptr noundef nonnull align 8 dereferenceable(140) %a, ptr noundef nonnull align 8 dereferenceable(140) %b) #1 comdat {
entry:
  %a.addr = alloca ptr, align 8
  %b.addr = alloca ptr, align 8
  %tmp = alloca %"struct.btSoftBody::Face", align 8
  store ptr %a, ptr %a.addr, align 8
  store ptr %b, ptr %b.addr, align 8
  %0 = load ptr, ptr %a.addr, align 8
  call void @llvm.memcpy.p0.p0.i64(ptr align 8 %tmp, ptr align 8 %0, i64 144, i1 false)
  %1 = load ptr, ptr %b.addr, align 8
  %2 = load ptr, ptr %a.addr, align 8
  call void @llvm.memcpy.p0.p0.i64(ptr align 8 %2, ptr align 8 %1, i64 140, i1 false)
  %3 = load ptr, ptr %b.addr, align 8
  call void @llvm.memcpy.p0.p0.i64(ptr align 8 %3, ptr align 8 %tmp, i64 140, i1 false)
  ret void
}

; Function Attrs: mustprogress nounwind uwtable
define linkonce_odr dso_local noundef nonnull align 8 dereferenceable(140) ptr @_ZN20btAlignedObjectArrayIN10btSoftBody4FaceEEixEi(ptr noundef nonnull align 8 dereferenceable(25) %this, i32 noundef %n) #1 comdat align 2 {
entry:
  %this.addr = alloca ptr, align 8
  %n.addr = alloca i32, align 4
  store ptr %this, ptr %this.addr, align 8
  store i32 %n, ptr %n.addr, align 4
  %this1 = load ptr, ptr %this.addr, align 8
  %m_data = getelementptr inbounds %class.btAlignedObjectArray.32, ptr %this1, i32 0, i32 5
  %0 = load ptr, ptr %m_data, align 8
  %1 = load i32, ptr %n.addr, align 4
  %idxprom = sext i32 %1 to i64
  %arrayidx = getelementptr inbounds %"struct.btSoftBody::Face", ptr %0, i64 %idxprom
  ret ptr %arrayidx
}

; Function Attrs: mustprogress nounwind uwtable
define linkonce_odr dso_local noundef i32 @_ZNK20btAlignedObjectArrayIN10btSoftBody4FaceEE4sizeEv(ptr noundef nonnull align 8 dereferenceable(25) %this) #1 comdat align 2 {
entry:
  %this.addr = alloca ptr, align 8
  store ptr %this, ptr %this.addr, align 8
  %this1 = load ptr, ptr %this.addr, align 8
  %m_size = getelementptr inbounds %class.btAlignedObjectArray.32, ptr %this1, i32 0, i32 2
  %0 = load i32, ptr %m_size, align 4
  ret i32 %0
}

; Function Attrs: mustprogress nounwind uwtable
define linkonce_odr dso_local void @_Z6btSwapIN10btSoftBody4LinkEEvRT_S3_(ptr noundef nonnull align 8 dereferenceable(68) %a, ptr noundef nonnull align 8 dereferenceable(68) %b) #1 comdat {
entry:
  %a.addr = alloca ptr, align 8
  %b.addr = alloca ptr, align 8
  %tmp = alloca %"struct.btSoftBody::Link", align 8
  store ptr %a, ptr %a.addr, align 8
  store ptr %b, ptr %b.addr, align 8
  %0 = load ptr, ptr %a.addr, align 8
  call void @llvm.memcpy.p0.p0.i64(ptr align 8 %tmp, ptr align 8 %0, i64 72, i1 false)
  %1 = load ptr, ptr %b.addr, align 8
  %2 = load ptr, ptr %a.addr, align 8
  call void @llvm.memcpy.p0.p0.i64(ptr align 8 %2, ptr align 8 %1, i64 68, i1 false)
  %3 = load ptr, ptr %b.addr, align 8
  call void @llvm.memcpy.p0.p0.i64(ptr align 8 %3, ptr align 8 %tmp, i64 68, i1 false)
  ret void
}

; Function Attrs: mustprogress nounwind uwtable
define linkonce_odr dso_local noundef nonnull align 8 dereferenceable(68) ptr @_ZN20btAlignedObjectArrayIN10btSoftBody4LinkEEixEi(ptr noundef nonnull align 8 dereferenceable(25) %this, i32 noundef %n) #1 comdat align 2 {
entry:
  %this.addr = alloca ptr, align 8
  %n.addr = alloca i32, align 4
  store ptr %this, ptr %this.addr, align 8
  store i32 %n, ptr %n.addr, align 4
  %this1 = load ptr, ptr %this.addr, align 8
  %m_data = getelementptr inbounds %class.btAlignedObjectArray.28, ptr %this1, i32 0, i32 5
  %0 = load ptr, ptr %m_data, align 8
  %1 = load i32, ptr %n.addr, align 4
  %idxprom = sext i32 %1 to i64
  %arrayidx = getelementptr inbounds %"struct.btSoftBody::Link", ptr %0, i64 %idxprom
  ret ptr %arrayidx
}

; Function Attrs: mustprogress nounwind uwtable
define linkonce_odr dso_local noundef i32 @_ZNK20btAlignedObjectArrayIN10btSoftBody4LinkEE4sizeEv(ptr noundef nonnull align 8 dereferenceable(25) %this) #1 comdat align 2 {
entry:
  %this.addr = alloca ptr, align 8
  store ptr %this, ptr %this.addr, align 8
  %this1 = load ptr, ptr %this.addr, align 8
  %m_size = getelementptr inbounds %class.btAlignedObjectArray.28, ptr %this1, i32 0, i32 2
  %0 = load i32, ptr %m_size, align 4
  ret i32 %0
}

; Function Attrs: mustprogress uwtable
define dso_local void @_ZN10btSoftBody20randomizeConstraintsEv(ptr noundef nonnull align 8 dereferenceable(2064) %this) #5 align 2 {
entry:
  %this.addr = alloca ptr, align 8
  %seed = alloca i64, align 8
  %i = alloca i32, align 4
  %ni = alloca i32, align 4
  store ptr %this, ptr %this.addr, align 8
  %this1 = load ptr, ptr %this.addr, align 8
  store i64 243703, ptr %seed, align 8
  store i32 0, ptr %i, align 4
  %m_links = getelementptr inbounds %class.btSoftBody, ptr %this1, i32 0, i32 13
  %call = call noundef i32 @_ZNK20btAlignedObjectArrayIN10btSoftBody4LinkEE4sizeEv(ptr noundef nonnull align 8 dereferenceable(25) %m_links)
  store i32 %call, ptr %ni, align 4
  br label %for.cond

for.cond:                                         ; preds = %for.inc, %entry
  %0 = load i32, ptr %i, align 4
  %1 = load i32, ptr %ni, align 4
  %cmp = icmp slt i32 %0, %1
  br i1 %cmp, label %for.body, label %for.end

for.body:                                         ; preds = %for.cond
  %m_links2 = getelementptr inbounds %class.btSoftBody, ptr %this1, i32 0, i32 13
  %2 = load i32, ptr %i, align 4
  %call3 = call noundef nonnull align 8 dereferenceable(68) ptr @_ZN20btAlignedObjectArrayIN10btSoftBody4LinkEEixEi(ptr noundef nonnull align 8 dereferenceable(25) %m_links2, i32 noundef %2)
  %m_links4 = getelementptr inbounds %class.btSoftBody, ptr %this1, i32 0, i32 13
  %3 = load i64, ptr %seed, align 8
  %mul = mul i64 1664525, %3
  %add = add i64 %mul, 1013904223
  %and = and i64 %add, 4294967295
  store i64 %and, ptr %seed, align 8
  %4 = load i32, ptr %ni, align 4
  %conv = sext i32 %4 to i64
  %rem = urem i64 %and, %conv
  %conv5 = trunc i64 %rem to i32
  %call6 = call noundef nonnull align 8 dereferenceable(68) ptr @_ZN20btAlignedObjectArrayIN10btSoftBody4LinkEEixEi(ptr noundef nonnull align 8 dereferenceable(25) %m_links4, i32 noundef %conv5)
  call void @_Z6btSwapIN10btSoftBody4LinkEEvRT_S3_(ptr noundef nonnull align 8 dereferenceable(68) %call3, ptr noundef nonnull align 8 dereferenceable(68) %call6)
  br label %for.inc

for.inc:                                          ; preds = %for.body
  %5 = load i32, ptr %i, align 4
  %inc = add nsw i32 %5, 1
  store i32 %inc, ptr %i, align 4
  br label %for.cond, !llvm.loop !92

for.end:                                          ; preds = %for.cond
  store i32 0, ptr %i, align 4
  %m_faces = getelementptr inbounds %class.btSoftBody, ptr %this1, i32 0, i32 14
  %call7 = call noundef i32 @_ZNK20btAlignedObjectArrayIN10btSoftBody4FaceEE4sizeEv(ptr noundef nonnull align 8 dereferenceable(25) %m_faces)
  store i32 %call7, ptr %ni, align 4
  br label %for.cond8

for.cond8:                                        ; preds = %for.inc21, %for.end
  %6 = load i32, ptr %i, align 4
  %7 = load i32, ptr %ni, align 4
  %cmp9 = icmp slt i32 %6, %7
  br i1 %cmp9, label %for.body10, label %for.end23

for.body10:                                       ; preds = %for.cond8
  %m_faces11 = getelementptr inbounds %class.btSoftBody, ptr %this1, i32 0, i32 14
  %8 = load i32, ptr %i, align 4
  %call12 = call noundef nonnull align 8 dereferenceable(140) ptr @_ZN20btAlignedObjectArrayIN10btSoftBody4FaceEEixEi(ptr noundef nonnull align 8 dereferenceable(25) %m_faces11, i32 noundef %8)
  %m_faces13 = getelementptr inbounds %class.btSoftBody, ptr %this1, i32 0, i32 14
  %9 = load i64, ptr %seed, align 8
  %mul14 = mul i64 1664525, %9
  %add15 = add i64 %mul14, 1013904223
  %and16 = and i64 %add15, 4294967295
  store i64 %and16, ptr %seed, align 8
  %10 = load i32, ptr %ni, align 4
  %conv17 = sext i32 %10 to i64
  %rem18 = urem i64 %and16, %conv17
  %conv19 = trunc i64 %rem18 to i32
  %call20 = call noundef nonnull align 8 dereferenceable(140) ptr @_ZN20btAlignedObjectArrayIN10btSoftBody4FaceEEixEi(ptr noundef nonnull align 8 dereferenceable(25) %m_faces13, i32 noundef %conv19)
  call void @_Z6btSwapIN10btSoftBody4FaceEEvRT_S3_(ptr noundef nonnull align 8 dereferenceable(140) %call12, ptr noundef nonnull align 8 dereferenceable(140) %call20)
  br label %for.inc21

for.inc21:                                        ; preds = %for.body10
  %11 = load i32, ptr %i, align 4
  %inc22 = add nsw i32 %11, 1
  store i32 %inc22, ptr %i, align 4
  br label %for.cond8, !llvm.loop !93

for.end23:                                        ; preds = %for.cond8
  ret void
}