; Function Attrs: mustprogress nofree norecurse nosync nounwind memory(readwrite, inaccessiblemem: none) uwtable
define dso_local void @_ZN10btSoftBody20randomizeConstraintsEv(ptr nocapture noundef nonnull readonly align 8 dereferenceable(2064) %this) local_unnamed_addr #11 align 2 {
entry:
  %tmp.i20 = alloca %"struct.btSoftBody::Face", align 8
  %tmp.i = alloca %"struct.btSoftBody::Link", align 8
  %m_size.i = getelementptr inbounds i8, ptr %this, i64 996
  %0 = load i32, ptr %m_size.i, align 4
  %cmp22 = icmp sgt i32 %0, 0
  br i1 %cmp22, label %for.body.lr.ph, label %for.end

for.body.lr.ph:                                   ; preds = %entry
  %m_data.i = getelementptr inbounds i8, ptr %this, i64 1008
  %conv = zext nneg i32 %0 to i64
  br label %for.body

for.body:                                         ; preds = %for.body.lr.ph, %for.body
  %indvars.iv = phi i64 [ 0, %for.body.lr.ph ], [ %indvars.iv.next, %for.body ]
  %seed.023 = phi i64 [ 243703, %for.body.lr.ph ], [ %and, %for.body ]
  %1 = load ptr, ptr %m_data.i, align 8
  %arrayidx.i = getelementptr inbounds %"struct.btSoftBody::Link", ptr %1, i64 %indvars.iv
  %mul = mul nuw nsw i64 %seed.023, 1664525
  %add = add nuw nsw i64 %mul, 1013904223
  %and = and i64 %add, 4294967295
  %rem = urem i64 %and, %conv
  %arrayidx.i12 = getelementptr inbounds %"struct.btSoftBody::Link", ptr %1, i64 %rem
  call void @llvm.lifetime.start.p0(i64 72, ptr nonnull %tmp.i)
  call void @llvm.memcpy.p0.p0.i64(ptr noundef nonnull align 8 dereferenceable(72) %tmp.i, ptr noundef nonnull align 8 dereferenceable(72) %arrayidx.i, i64 72, i1 false)
  tail call void @llvm.memcpy.p0.p0.i64(ptr noundef nonnull align 8 dereferenceable(68) %arrayidx.i, ptr noundef nonnull align 8 dereferenceable(68) %arrayidx.i12, i64 68, i1 false)
  call void @llvm.memcpy.p0.p0.i64(ptr noundef nonnull align 8 dereferenceable(68) %arrayidx.i12, ptr noundef nonnull align 8 dereferenceable(68) %tmp.i, i64 68, i1 false)
  call void @llvm.lifetime.end.p0(i64 72, ptr nonnull %tmp.i)
  %indvars.iv.next = add nuw nsw i64 %indvars.iv, 1
  %exitcond.not = icmp eq i64 %indvars.iv.next, %conv
  br i1 %exitcond.not, label %for.end, label %for.body, !llvm.loop !211

for.end:                                          ; preds = %for.body, %entry
  %seed.0.lcssa = phi i64 [ 243703, %entry ], [ %and, %for.body ]
  %m_size.i13 = getelementptr inbounds i8, ptr %this, i64 1028
  %2 = load i32, ptr %m_size.i13, align 4
  %cmp925 = icmp sgt i32 %2, 0
  br i1 %cmp925, label %for.body10.lr.ph, label %for.end23

for.body10.lr.ph:                                 ; preds = %for.end
  %m_data.i14 = getelementptr inbounds i8, ptr %this, i64 1040
  %conv17 = zext nneg i32 %2 to i64
  br label %for.body10

for.body10:                                       ; preds = %for.body10.lr.ph, %for.body10
  %indvars.iv29 = phi i64 [ 0, %for.body10.lr.ph ], [ %indvars.iv.next30, %for.body10 ]
  %seed.126 = phi i64 [ %seed.0.lcssa, %for.body10.lr.ph ], [ %and16, %for.body10 ]
  %3 = load ptr, ptr %m_data.i14, align 8
  %arrayidx.i16 = getelementptr inbounds %"struct.btSoftBody::Face", ptr %3, i64 %indvars.iv29
  %mul14 = mul nuw nsw i64 %seed.126, 1664525
  %add15 = add nuw nsw i64 %mul14, 1013904223
  %and16 = and i64 %add15, 4294967295
  %rem18 = urem i64 %and16, %conv17
  %arrayidx.i19 = getelementptr inbounds %"struct.btSoftBody::Face", ptr %3, i64 %rem18
  call void @llvm.lifetime.start.p0(i64 144, ptr nonnull %tmp.i20)
  call void @llvm.memcpy.p0.p0.i64(ptr noundef nonnull align 8 dereferenceable(144) %tmp.i20, ptr noundef nonnull align 8 dereferenceable(144) %arrayidx.i16, i64 144, i1 false)
  tail call void @llvm.memcpy.p0.p0.i64(ptr noundef nonnull align 8 dereferenceable(140) %arrayidx.i16, ptr noundef nonnull align 8 dereferenceable(140) %arrayidx.i19, i64 140, i1 false)
  call void @llvm.memcpy.p0.p0.i64(ptr noundef nonnull align 8 dereferenceable(140) %arrayidx.i19, ptr noundef nonnull align 8 dereferenceable(140) %tmp.i20, i64 140, i1 false)
  call void @llvm.lifetime.end.p0(i64 144, ptr nonnull %tmp.i20)
  %indvars.iv.next30 = add nuw nsw i64 %indvars.iv29, 1
  %exitcond33.not = icmp eq i64 %indvars.iv.next30, %conv17
  br i1 %exitcond33.not, label %for.end23, label %for.body10, !llvm.loop !212

for.end23:                                        ; preds = %for.body10, %for.end
  ret void
}